; Function Attrs: mustprogress nofree norecurse nosync nounwind sspstrong willreturn memory(none) uwtable
define dso_local noundef zeroext i1 @migration_is_running(i32 noundef %state) local_unnamed_addr #4 {
entry:
  %0 = icmp ult i32 %state, 14
  %switch.cast = trunc i32 %state to i14
  %switch.downshift = lshr i14 -1802, %switch.cast
  %switch.masked = trunc i14 %switch.downshift to i1
  %retval.0 = select i1 %0, i1 %switch.masked, i1 false
  ret i1 %retval.0
}